target datalayout = "e-m:e-p270:32:32-p271:32:32-p272:64:64-i64:64-i128:128-f80:128-n8:16:32:64-S128"
target triple = "x86_64-pc-linux-gnu"

@_ZL22stbi__g_failure_reason = internal thread_local global ptr null, align 8
@_ZL17stbi__h2l_gamma_i = internal global float 0x3FDD1745C0000000, align 4
@_ZL17stbi__h2l_scale_i = internal global float 1.000000e+00, align 4
@.str.8 = private unnamed_addr constant [9 x i8] c"outofmem\00", align 1

; Function Attrs: mustprogress nounwind uwtable
define internal noundef i32 @_ZL20stbi__addsizes_validii(i32 noundef %0, i32 noundef %1) #0 {
  %3 = alloca i32, align 4
  %4 = alloca i32, align 4
  %5 = alloca i32, align 4
  store i32 %0, ptr %4, align 4, !tbaa !10
  store i32 %1, ptr %5, align 4, !tbaa !10
  %6 = load i32, ptr %5, align 4, !tbaa !10
  %7 = icmp slt i32 %6, 0
  br i1 %7, label %8, label %9

8:                                                ; preds = %2
  store i32 0, ptr %3, align 4
  br label %15

9:                                                ; preds = %2
  %10 = load i32, ptr %4, align 4, !tbaa !10
  %11 = load i32, ptr %5, align 4, !tbaa !10
  %12 = sub nsw i32 2147483647, %11
  %13 = icmp sle i32 %10, %12
  %14 = zext i1 %13 to i32
  store i32 %14, ptr %3, align 4
  br label %15

15:                                               ; preds = %9, %8
  %16 = load i32, ptr %3, align 4
  ret i32 %16
}

; Function Attrs: mustprogress nounwind uwtable
define internal noundef i32 @_ZL21stbi__mul2sizes_validii(i32 noundef %0, i32 noundef %1) #0 {
  %3 = alloca i32, align 4
  %4 = alloca i32, align 4
  %5 = alloca i32, align 4
  store i32 %0, ptr %4, align 4, !tbaa !10
  store i32 %1, ptr %5, align 4, !tbaa !10
  %6 = load i32, ptr %4, align 4, !tbaa !10
  %7 = icmp slt i32 %6, 0
  br i1 %7, label %11, label %8

8:                                                ; preds = %2
  %9 = load i32, ptr %5, align 4, !tbaa !10
  %10 = icmp slt i32 %9, 0
  br i1 %10, label %11, label %12

11:                                               ; preds = %8, %2
  store i32 0, ptr %3, align 4
  br label %22

12:                                               ; preds = %8
  %13 = load i32, ptr %5, align 4, !tbaa !10
  %14 = icmp eq i32 %13, 0
  br i1 %14, label %15, label %16

15:                                               ; preds = %12
  store i32 1, ptr %3, align 4
  br label %22

16:                                               ; preds = %12
  %17 = load i32, ptr %4, align 4, !tbaa !10
  %18 = load i32, ptr %5, align 4, !tbaa !10
  %19 = sdiv i32 2147483647, %18
  %20 = icmp sle i32 %17, %19
  %21 = zext i1 %20 to i32
  store i32 %21, ptr %3, align 4
  br label %22

22:                                               ; preds = %16, %15, %11
  %23 = load i32, ptr %3, align 4
  ret i32 %23
}

; Function Attrs: mustprogress nounwind uwtable
define internal noundef ptr @_ZL12stbi__mallocm(i64 noundef %0) #0 {
  %2 = alloca i64, align 8
  store i64 %0, ptr %2, align 8, !tbaa !47
  %3 = load i64, ptr %2, align 8, !tbaa !47
  %4 = call noalias ptr @malloc(i64 noundef %3) #26
  ret ptr %4
}

; Function Attrs: mustprogress uwtable
define internal noundef i32 @_ZL21stbi__mad3sizes_validiiii(i32 noundef %0, i32 noundef %1, i32 noundef %2, i32 noundef %3) #3 {
  %5 = alloca i32, align 4
  %6 = alloca i32, align 4
  %7 = alloca i32, align 4
  %8 = alloca i32, align 4
  store i32 %0, ptr %5, align 4, !tbaa !10
  store i32 %1, ptr %6, align 4, !tbaa !10
  store i32 %2, ptr %7, align 4, !tbaa !10
  store i32 %3, ptr %8, align 4, !tbaa !10
  %9 = load i32, ptr %5, align 4, !tbaa !10
  %10 = load i32, ptr %6, align 4, !tbaa !10
  %11 = call noundef i32 @_ZL21stbi__mul2sizes_validii(i32 noundef %9, i32 noundef %10)
  %12 = icmp ne i32 %11, 0
  br i1 %12, label %13, label %29

13:                                               ; preds = %4
  %14 = load i32, ptr %5, align 4, !tbaa !10
  %15 = load i32, ptr %6, align 4, !tbaa !10
  %16 = mul nsw i32 %14, %15
  %17 = load i32, ptr %7, align 4, !tbaa !10
  %18 = call noundef i32 @_ZL21stbi__mul2sizes_validii(i32 noundef %16, i32 noundef %17)
  %19 = icmp ne i32 %18, 0
  br i1 %19, label %20, label %29

20:                                               ; preds = %13
  %21 = load i32, ptr %5, align 4, !tbaa !10
  %22 = load i32, ptr %6, align 4, !tbaa !10
  %23 = mul nsw i32 %21, %22
  %24 = load i32, ptr %7, align 4, !tbaa !10
  %25 = mul nsw i32 %23, %24
  %26 = load i32, ptr %8, align 4, !tbaa !10
  %27 = call noundef i32 @_ZL20stbi__addsizes_validii(i32 noundef %25, i32 noundef %26)
  %28 = icmp ne i32 %27, 0
  br label %29

29:                                               ; preds = %20, %13, %4
  %30 = phi i1 [ false, %13 ], [ false, %4 ], [ %28, %20 ]
  %31 = zext i1 %30 to i32
  ret i32 %31
}

; Function Attrs: inlinehint mustprogress nounwind uwtable
define linkonce_odr dso_local noundef float @_ZSt3powff(float noundef %0, float noundef %1) #13 comdat {
  %3 = alloca float, align 4
  %4 = alloca float, align 4
  store float %0, ptr %3, align 4, !tbaa !49
  store float %1, ptr %4, align 4, !tbaa !49
  %5 = load float, ptr %3, align 4, !tbaa !49
  %6 = load float, ptr %4, align 4, !tbaa !49
  %7 = call float @powf(float noundef %5, float noundef %6) #22, !tbaa !10
  ret float %7
}

; Function Attrs: mustprogress nounwind uwtable
define internal noundef i32 @_ZL9stbi__errPKc(ptr noundef %0) #0 {
  %2 = alloca ptr, align 8
  store ptr %0, ptr %2, align 8, !tbaa !4
  %3 = load ptr, ptr %2, align 8, !tbaa !4
  %4 = call align 8 ptr @llvm.threadlocal.address.p0(ptr align 8 @_ZL22stbi__g_failure_reason)
  store ptr %3, ptr %4, align 8, !tbaa !4
  ret i32 0
}

; Function Attrs: mustprogress uwtable
define internal noundef ptr @_ZL17stbi__malloc_mad3iiii(i32 noundef %0, i32 noundef %1, i32 noundef %2, i32 noundef %3) #3 {
  %5 = alloca ptr, align 8
  %6 = alloca i32, align 4
  %7 = alloca i32, align 4
  %8 = alloca i32, align 4
  %9 = alloca i32, align 4
  store i32 %0, ptr %6, align 4, !tbaa !10
  store i32 %1, ptr %7, align 4, !tbaa !10
  store i32 %2, ptr %8, align 4, !tbaa !10
  store i32 %3, ptr %9, align 4, !tbaa !10
  %10 = load i32, ptr %6, align 4, !tbaa !10
  %11 = load i32, ptr %7, align 4, !tbaa !10
  %12 = load i32, ptr %8, align 4, !tbaa !10
  %13 = load i32, ptr %9, align 4, !tbaa !10
  %14 = call noundef i32 @_ZL21stbi__mad3sizes_validiiii(i32 noundef %10, i32 noundef %11, i32 noundef %12, i32 noundef %13)
  %15 = icmp ne i32 %14, 0
  br i1 %15, label %17, label %16

16:                                               ; preds = %4
  store ptr null, ptr %5, align 8
  br label %27

17:                                               ; preds = %4
  %18 = load i32, ptr %6, align 4, !tbaa !10
  %19 = load i32, ptr %7, align 4, !tbaa !10
  %20 = mul nsw i32 %18, %19
  %21 = load i32, ptr %8, align 4, !tbaa !10
  %22 = mul nsw i32 %20, %21
  %23 = load i32, ptr %9, align 4, !tbaa !10
  %24 = add nsw i32 %22, %23
  %25 = sext i32 %24 to i64
  %26 = call noundef ptr @_ZL12stbi__mallocm(i64 noundef %25)
  store ptr %26, ptr %5, align 8
  br label %27

27:                                               ; preds = %17, %16
  %28 = load ptr, ptr %5, align 8
  ret ptr %28
}

; Function Attrs: mustprogress uwtable
define internal noundef ptr @_ZL16stbi__hdr_to_ldrPfiii(ptr noundef %0, i32 noundef %1, i32 noundef %2, i32 noundef %3) #3 {
  %5 = alloca ptr, align 8
  %6 = alloca ptr, align 8
  %7 = alloca i32, align 4
  %8 = alloca i32, align 4
  %9 = alloca i32, align 4
  %10 = alloca i32, align 4
  %11 = alloca i32, align 4
  %12 = alloca i32, align 4
  %13 = alloca ptr, align 8
  %14 = alloca i32, align 4
  %15 = alloca float, align 4
  %16 = alloca float, align 4
  store ptr %0, ptr %6, align 8, !tbaa !45
  store i32 %1, ptr %7, align 4, !tbaa !10
  store i32 %2, ptr %8, align 4, !tbaa !10
  store i32 %3, ptr %9, align 4, !tbaa !10
  call void @llvm.lifetime.start.p0(i64 4, ptr %10) #22
  call void @llvm.lifetime.start.p0(i64 4, ptr %11) #22
  call void @llvm.lifetime.start.p0(i64 4, ptr %12) #22
  call void @llvm.lifetime.start.p0(i64 8, ptr %13) #22
  %17 = load ptr, ptr %6, align 8, !tbaa !45
  %18 = icmp ne ptr %17, null
  br i1 %18, label %20, label %19

19:                                               ; preds = %4
  store ptr null, ptr %5, align 8
  store i32 1, ptr %14, align 4
  br label %134

20:                                               ; preds = %4
  %21 = load i32, ptr %7, align 4, !tbaa !10
  %22 = load i32, ptr %8, align 4, !tbaa !10
  %23 = load i32, ptr %9, align 4, !tbaa !10
  %24 = call noundef ptr @_ZL17stbi__malloc_mad3iiii(i32 noundef %21, i32 noundef %22, i32 noundef %23, i32 noundef 0)
  store ptr %24, ptr %13, align 8, !tbaa !4
  %25 = load ptr, ptr %13, align 8, !tbaa !4
  %26 = icmp eq ptr %25, null
  br i1 %26, label %27, label %33

27:                                               ; preds = %20
  %28 = load ptr, ptr %6, align 8, !tbaa !45
  call void @free(ptr noundef %28) #22
  %29 = call noundef i32 @_ZL9stbi__errPKc(ptr noundef @.str.8)
  %30 = icmp ne i32 %29, 0
  %31 = select i1 %30, i64 0, i64 0
  %32 = inttoptr i64 %31 to ptr
  store ptr %32, ptr %5, align 8
  store i32 1, ptr %14, align 4
  br label %134

33:                                               ; preds = %20
  %34 = load i32, ptr %9, align 4, !tbaa !10
  %35 = and i32 %34, 1
  %36 = icmp ne i32 %35, 0
  br i1 %36, label %37, label %39

37:                                               ; preds = %33
  %38 = load i32, ptr %9, align 4, !tbaa !10
  store i32 %38, ptr %12, align 4, !tbaa !10
  br label %42

39:                                               ; preds = %33
  %40 = load i32, ptr %9, align 4, !tbaa !10
  %41 = sub nsw i32 %40, 1
  store i32 %41, ptr %12, align 4, !tbaa !10
  br label %42

42:                                               ; preds = %39, %37
  store i32 0, ptr %10, align 4, !tbaa !10
  br label %43

43:                                               ; preds = %128, %42
  %44 = load i32, ptr %10, align 4, !tbaa !10
  %45 = load i32, ptr %7, align 4, !tbaa !10
  %46 = load i32, ptr %8, align 4, !tbaa !10
  %47 = mul nsw i32 %45, %46
  %48 = icmp slt i32 %44, %47
  br i1 %48, label %49, label %131

49:                                               ; preds = %43
  store i32 0, ptr %11, align 4, !tbaa !10
  br label %50

50:                                               ; preds = %89, %49
  %51 = load i32, ptr %11, align 4, !tbaa !10
  %52 = load i32, ptr %12, align 4, !tbaa !10
  %53 = icmp slt i32 %51, %52
  br i1 %53, label %54, label %92

54:                                               ; preds = %50
  call void @llvm.lifetime.start.p0(i64 4, ptr %15) #22
  %55 = load ptr, ptr %6, align 8, !tbaa !45
  %56 = load i32, ptr %10, align 4, !tbaa !10
  %57 = load i32, ptr %9, align 4, !tbaa !10
  %58 = mul nsw i32 %56, %57
  %59 = load i32, ptr %11, align 4, !tbaa !10
  %60 = add nsw i32 %58, %59
  %61 = sext i32 %60 to i64
  %62 = getelementptr inbounds float, ptr %55, i64 %61
  %63 = load float, ptr %62, align 4, !tbaa !49
  %64 = load float, ptr @_ZL17stbi__h2l_scale_i, align 4, !tbaa !49
  %65 = fmul float %63, %64
  %66 = load float, ptr @_ZL17stbi__h2l_gamma_i, align 4, !tbaa !49
  %67 = call noundef float @_ZSt3powff(float noundef %65, float noundef %66)
  %68 = fmul float %67, 2.550000e+02
  %69 = fadd float %68, 5.000000e-01
  store float %69, ptr %15, align 4, !tbaa !49
  %70 = load float, ptr %15, align 4, !tbaa !49
  %71 = fcmp olt float %70, 0.000000e+00
  br i1 %71, label %72, label %73

72:                                               ; preds = %54
  store float 0.000000e+00, ptr %15, align 4, !tbaa !49
  br label %73

73:                                               ; preds = %72, %54
  %74 = load float, ptr %15, align 4, !tbaa !49
  %75 = fcmp ogt float %74, 2.550000e+02
  br i1 %75, label %76, label %77

76:                                               ; preds = %73
  store float 2.550000e+02, ptr %15, align 4, !tbaa !49
  br label %77

77:                                               ; preds = %76, %73
  %78 = load float, ptr %15, align 4, !tbaa !49
  %79 = fptosi float %78 to i32
  %80 = trunc i32 %79 to i8
  %81 = load ptr, ptr %13, align 8, !tbaa !4
  %82 = load i32, ptr %10, align 4, !tbaa !10
  %83 = load i32, ptr %9, align 4, !tbaa !10
  %84 = mul nsw i32 %82, %83
  %85 = load i32, ptr %11, align 4, !tbaa !10
  %86 = add nsw i32 %84, %85
  %87 = sext i32 %86 to i64
  %88 = getelementptr inbounds i8, ptr %81, i64 %87
  store i8 %80, ptr %88, align 1, !tbaa !57
  call void @llvm.lifetime.end.p0(i64 4, ptr %15) #22
  br label %89

89:                                               ; preds = %77
  %90 = load i32, ptr %11, align 4, !tbaa !10
  %91 = add nsw i32 %90, 1
  store i32 %91, ptr %11, align 4, !tbaa !10
  br label %50, !llvm.loop !107

92:                                               ; preds = %50
  %93 = load i32, ptr %11, align 4, !tbaa !10
  %94 = load i32, ptr %9, align 4, !tbaa !10
  %95 = icmp slt i32 %93, %94
  br i1 %95, label %96, label %127

96:                                               ; preds = %92
  call void @llvm.lifetime.start.p0(i64 4, ptr %16) #22
  %97 = load ptr, ptr %6, align 8, !tbaa !45
  %98 = load i32, ptr %10, align 4, !tbaa !10
  %99 = load i32, ptr %9, align 4, !tbaa !10
  %100 = mul nsw i32 %98, %99
  %101 = load i32, ptr %11, align 4, !tbaa !10
  %102 = add nsw i32 %100, %101
  %103 = sext i32 %102 to i64
  %104 = getelementptr inbounds float, ptr %97, i64 %103
  %105 = load float, ptr %104, align 4, !tbaa !49
  %106 = fmul float %105, 2.550000e+02
  %107 = fadd float %106, 5.000000e-01
  store float %107, ptr %16, align 4, !tbaa !49
  %108 = load float, ptr %16, align 4, !tbaa !49
  %109 = fcmp olt float %108, 0.000000e+00
  br i1 %109, label %110, label %111

110:                                              ; preds = %96
  store float 0.000000e+00, ptr %16, align 4, !tbaa !49
  br label %111

111:                                              ; preds = %110, %96
  %112 = load float, ptr %16, align 4, !tbaa !49
  %113 = fcmp ogt float %112, 2.550000e+02
  br i1 %113, label %114, label %115

114:                                              ; preds = %111
  store float 2.550000e+02, ptr %16, align 4, !tbaa !49
  br label %115

115:                                              ; preds = %114, %111
  %116 = load float, ptr %16, align 4, !tbaa !49
  %117 = fptosi float %116 to i32
  %118 = trunc i32 %117 to i8
  %119 = load ptr, ptr %13, align 8, !tbaa !4
  %120 = load i32, ptr %10, align 4, !tbaa !10
  %121 = load i32, ptr %9, align 4, !tbaa !10
  %122 = mul nsw i32 %120, %121
  %123 = load i32, ptr %11, align 4, !tbaa !10
  %124 = add nsw i32 %122, %123
  %125 = sext i32 %124 to i64
  %126 = getelementptr inbounds i8, ptr %119, i64 %125
  store i8 %118, ptr %126, align 1, !tbaa !57
  call void @llvm.lifetime.end.p0(i64 4, ptr %16) #22
  br label %127

127:                                              ; preds = %115, %92
  br label %128

128:                                              ; preds = %127
  %129 = load i32, ptr %10, align 4, !tbaa !10
  %130 = add nsw i32 %129, 1
  store i32 %130, ptr %10, align 4, !tbaa !10
  br label %43, !llvm.loop !108

131:                                              ; preds = %43
  %132 = load ptr, ptr %6, align 8, !tbaa !45
  call void @free(ptr noundef %132) #22
  %133 = load ptr, ptr %13, align 8, !tbaa !4
  store ptr %133, ptr %5, align 8
  store i32 1, ptr %14, align 4
  br label %134

134:                                              ; preds = %131, %27, %19
  call void @llvm.lifetime.end.p0(i64 8, ptr %13) #22
  call void @llvm.lifetime.end.p0(i64 4, ptr %12) #22
  call void @llvm.lifetime.end.p0(i64 4, ptr %11) #22
  call void @llvm.lifetime.end.p0(i64 4, ptr %10) #22
  %135 = load ptr, ptr %5, align 8
  ret ptr %135
}