; Function Attrs: mustprogress nounwind uwtable
define internal fastcc noalias noundef ptr @_ZL16stbi__hdr_to_ldrPfiii(ptr noundef %0, i32 noundef %1, i32 noundef %2, i32 noundef %3) unnamed_addr #12 {
  %.not = icmp eq ptr %0, null
  br i1 %.not, label %67, label %5

5:                                                ; preds = %4
  %6 = or i32 %2, %1
  %or.cond.not.i.i.i = icmp sgt i32 %6, -1
  br i1 %or.cond.not.i.i.i, label %7, label %_ZL17stbi__malloc_mad3iiii.exit.thread

7:                                                ; preds = %5
  %8 = icmp eq i32 %2, 0
  br i1 %8, label %_ZL21stbi__mul2sizes_validii.exit.thread15.i.i, label %_ZL21stbi__mul2sizes_validii.exit.i.i

_ZL21stbi__mul2sizes_validii.exit.i.i:            ; preds = %7
  %9 = udiv i32 2147483647, %2
  %.not23.i.i = icmp sgt i32 %1, %9
  br i1 %.not23.i.i, label %_ZL17stbi__malloc_mad3iiii.exit.thread, label %_ZL21stbi__mul2sizes_validii.exit.thread15.i.i

_ZL21stbi__mul2sizes_validii.exit.thread15.i.i:   ; preds = %_ZL21stbi__mul2sizes_validii.exit.i.i, %7
  %10 = mul nsw i32 %2, %1
  %11 = or i32 %3, %10
  %or.cond.not.i10.i.i = icmp sgt i32 %11, -1
  br i1 %or.cond.not.i10.i.i, label %12, label %_ZL17stbi__malloc_mad3iiii.exit.thread

12:                                               ; preds = %_ZL21stbi__mul2sizes_validii.exit.thread15.i.i
  %13 = icmp eq i32 %3, 0
  br i1 %13, label %_ZL17stbi__malloc_mad3iiii.exit, label %_ZL21stbi__mul2sizes_validii.exit12.i.i

_ZL21stbi__mul2sizes_validii.exit12.i.i:          ; preds = %12
  %14 = udiv i32 2147483647, %3
  %.not.i.i = icmp sgt i32 %10, %14
  br i1 %.not.i.i, label %_ZL17stbi__malloc_mad3iiii.exit.thread, label %_ZL17stbi__malloc_mad3iiii.exit

_ZL17stbi__malloc_mad3iiii.exit:                  ; preds = %12, %_ZL21stbi__mul2sizes_validii.exit12.i.i
  %15 = mul nsw i32 %10, %3
  %16 = sext i32 %15 to i64
  %17 = tail call noalias noundef ptr @malloc(i64 noundef range(i64 -8589934588, 8589934589) %16) #42
  %18 = icmp eq ptr %17, null
  br i1 %18, label %_ZL17stbi__malloc_mad3iiii.exit.thread, label %20

_ZL17stbi__malloc_mad3iiii.exit.thread:           ; preds = %_ZL21stbi__mul2sizes_validii.exit.thread15.i.i, %5, %_ZL21stbi__mul2sizes_validii.exit.i.i, %_ZL21stbi__mul2sizes_validii.exit12.i.i, %_ZL17stbi__malloc_mad3iiii.exit
  tail call void @free(ptr noundef nonnull %0) #40
  %19 = tail call align 8 ptr @llvm.threadlocal.address.p0(ptr align 8 @_ZL22stbi__g_failure_reason)
  store ptr @.str.8, ptr %19, align 8, !tbaa !4
  br label %67

20:                                               ; preds = %_ZL17stbi__malloc_mad3iiii.exit
  %21 = and i32 %3, 1
  %sext = add i32 %3, -1
  %.045 = add i32 %sext, %21
  %22 = icmp sgt i32 %10, 0
  br i1 %22, label %.preheader.lr.ph, label %._crit_edge57

.preheader.lr.ph:                                 ; preds = %20
  %23 = icmp sgt i32 %.045, 0
  %24 = load float, ptr @_ZL17stbi__h2l_scale_i, align 4
  %25 = load float, ptr @_ZL17stbi__h2l_gamma_i, align 4
  br i1 %23, label %.preheader.us.preheader, label %.preheader.lr.ph.split

.preheader.us.preheader:                          ; preds = %.preheader.lr.ph
  %26 = sext i32 %3 to i64
  %wide.trip.count73 = zext nneg i32 %10 to i64
  %wide.trip.count68 = zext nneg i32 %.045 to i64
  %27 = icmp slt i32 %.045, %3
  %28 = zext nneg i32 %.045 to i64
  br label %.preheader.us

.preheader.us:                                    ; preds = %.preheader.us.preheader, %41
  %indvars.iv70 = phi i64 [ 0, %.preheader.us.preheader ], [ %indvars.iv.next71, %41 ]
  %29 = mul nsw i64 %indvars.iv70, %26
  br label %42

30:                                               ; preds = %._crit_edge.us
  %31 = add nsw i64 %29, %28
  %32 = getelementptr inbounds float, ptr %0, i64 %31
  %33 = load float, ptr %32, align 4, !tbaa !44
  %34 = fmul float %33, 2.550000e+02
  %35 = fadd float %34, 5.000000e-01
  %36 = fcmp olt float %35, 0.000000e+00
  %.0.us = select i1 %36, float 0.000000e+00, float %35
  %37 = fcmp ogt float %.0.us, 2.550000e+02
  %.1.us = select i1 %37, float 2.550000e+02, float %.0.us
  %38 = fptosi float %.1.us to i32
  %39 = trunc i32 %38 to i8
  %40 = getelementptr inbounds i8, ptr %17, i64 %31
  store i8 %39, ptr %40, align 1, !tbaa !22
  br label %41

41:                                               ; preds = %30, %._crit_edge.us
  %indvars.iv.next71 = add nuw nsw i64 %indvars.iv70, 1
  %exitcond74.not = icmp eq i64 %indvars.iv.next71, %wide.trip.count73
  br i1 %exitcond74.not, label %._crit_edge57, label %.preheader.us, !llvm.loop !200

42:                                               ; preds = %.preheader.us, %42
  %indvars.iv65 = phi i64 [ 0, %.preheader.us ], [ %indvars.iv.next66, %42 ]
  %43 = add nsw i64 %indvars.iv65, %29
  %44 = getelementptr inbounds float, ptr %0, i64 %43
  %45 = load float, ptr %44, align 4, !tbaa !44
  %46 = fmul float %45, %24
  %47 = tail call noundef float @powf(float noundef %46, float noundef %25) #40, !tbaa !9
  %48 = fmul float %47, 2.550000e+02
  %49 = fadd float %48, 5.000000e-01
  %50 = fcmp olt float %49, 0.000000e+00
  %.042.us = select i1 %50, float 0.000000e+00, float %49
  %51 = fcmp ogt float %.042.us, 2.550000e+02
  %.143.us = select i1 %51, float 2.550000e+02, float %.042.us
  %52 = fptosi float %.143.us to i32
  %53 = trunc i32 %52 to i8
  %54 = getelementptr inbounds i8, ptr %17, i64 %43
  store i8 %53, ptr %54, align 1, !tbaa !22
  %indvars.iv.next66 = add nuw nsw i64 %indvars.iv65, 1
  %exitcond69.not = icmp eq i64 %indvars.iv.next66, %wide.trip.count68
  br i1 %exitcond69.not, label %._crit_edge.us, label %42, !llvm.loop !201

._crit_edge.us:                                   ; preds = %42
  br i1 %27, label %30, label %41

.preheader.lr.ph.split:                           ; preds = %.preheader.lr.ph
  %55 = icmp sgt i32 %3, 0
  br i1 %55, label %.preheader.us58.preheader, label %._crit_edge57

.preheader.us58.preheader:                        ; preds = %.preheader.lr.ph.split
  %56 = zext nneg i32 %3 to i64
  %wide.trip.count = zext nneg i32 %10 to i64
  br label %.preheader.us58

.preheader.us58:                                  ; preds = %.preheader.us58.preheader, %.preheader.us58
  %indvars.iv = phi i64 [ 0, %.preheader.us58.preheader ], [ %indvars.iv.next, %.preheader.us58 ]
  %57 = mul nuw nsw i64 %indvars.iv, %56
  %58 = getelementptr inbounds nuw float, ptr %0, i64 %57
  %59 = load float, ptr %58, align 4, !tbaa !44
  %60 = fmul float %59, 2.550000e+02
  %61 = fadd float %60, 5.000000e-01
  %62 = fcmp olt float %61, 0.000000e+00
  %.0.us60 = select i1 %62, float 0.000000e+00, float %61
  %63 = fcmp ogt float %.0.us60, 2.550000e+02
  %.1.us61 = select i1 %63, float 2.550000e+02, float %.0.us60
  %64 = fptosi float %.1.us61 to i32
  %65 = trunc i32 %64 to i8
  %66 = getelementptr inbounds nuw i8, ptr %17, i64 %57
  store i8 %65, ptr %66, align 1, !tbaa !22
  %indvars.iv.next = add nuw nsw i64 %indvars.iv, 1
  %exitcond.not = icmp eq i64 %indvars.iv.next, %wide.trip.count
  br i1 %exitcond.not, label %._crit_edge57, label %.preheader.us58, !llvm.loop !200

._crit_edge57:                                    ; preds = %.preheader.us58, %41, %.preheader.lr.ph.split, %20
  tail call void @free(ptr noundef nonnull %0) #40
  br label %67

67:                                               ; preds = %4, %._crit_edge57, %_ZL17stbi__malloc_mad3iiii.exit.thread
  %.044 = phi ptr [ null, %_ZL17stbi__malloc_mad3iiii.exit.thread ], [ %17, %._crit_edge57 ], [ null, %4 ]
  ret ptr %.044
}